; Function Attrs: nounwind uwtable
define hidden i32 @luaE_resetthread(ptr noundef %0, i32 noundef %1) local_unnamed_addr #2 {
  %3 = getelementptr inbounds nuw i8, ptr %0, i64 96
  %4 = getelementptr inbounds nuw i8, ptr %0, i64 32
  store ptr %3, ptr %4, align 8, !tbaa !19
  %5 = getelementptr inbounds nuw i8, ptr %0, i64 48
  %6 = load ptr, ptr %5, align 8, !tbaa !30
  %7 = getelementptr inbounds nuw i8, ptr %6, i64 8
  store i8 0, ptr %7, align 8, !tbaa !30
  %8 = load ptr, ptr %5, align 8, !tbaa !30
  store ptr %8, ptr %3, align 8, !tbaa !30
  %9 = getelementptr inbounds nuw i8, ptr %0, i64 156
  store i32 32768, ptr %9, align 4, !tbaa !48
  %10 = icmp eq i32 %1, 1
  %spec.store.select = select i1 %10, i32 0, i32 %1
  %11 = getelementptr inbounds nuw i8, ptr %0, i64 10
  store i8 0, ptr %11, align 2, !tbaa !43
  %12 = tail call i32 @luaD_closeprotected(ptr noundef %0, i64 noundef 1, i32 noundef %spec.store.select) #8
  %.not = icmp eq i32 %12, 0
  %13 = load ptr, ptr %5, align 8, !tbaa !30
  %14 = getelementptr inbounds nuw i8, ptr %13, i64 16
  br i1 %.not, label %16, label %15

15:                                               ; preds = %2
  tail call void @luaD_seterrorobj(ptr noundef nonnull %0, i32 noundef %12, ptr noundef nonnull %14) #8
  %.phi.trans.insert = getelementptr inbounds nuw i8, ptr %0, i64 16
  %.pre = load ptr, ptr %.phi.trans.insert, align 8, !tbaa !30
  %.pre21 = load ptr, ptr %5, align 8, !tbaa !30
  br label %18

16:                                               ; preds = %2
  %17 = getelementptr inbounds nuw i8, ptr %0, i64 16
  store ptr %14, ptr %17, align 8, !tbaa !30
  br label %18

18:                                               ; preds = %16, %15
  %19 = phi ptr [ %13, %16 ], [ %.pre21, %15 ]
  %20 = phi ptr [ %14, %16 ], [ %.pre, %15 ]
  %21 = getelementptr inbounds nuw i8, ptr %20, i64 320
  %22 = getelementptr inbounds nuw i8, ptr %0, i64 104
  store ptr %21, ptr %22, align 8, !tbaa !30
  %23 = ptrtoint ptr %21 to i64
  %24 = ptrtoint ptr %19 to i64
  %25 = sub i64 %23, %24
  %26 = lshr exact i64 %25, 4
  %27 = trunc i64 %26 to i32
  %28 = tail call i32 @luaD_reallocstack(ptr noundef nonnull %0, i32 noundef %27, i32 noundef 0) #8
  ret i32 %12
}